
main.elf:     file format elf32-littlearm


Disassembly of section .text:

08000000 <__rom_start>:
 8000000:	20001800 	.word	0x20001800
 8000004:	080000a1 	.word	0x080000a1
	...

08000020 <_Z4waitv>:
 8000020:	2300      	movs	r3, #0
 8000022:	b082      	sub	sp, #8
 8000024:	4a05      	ldr	r2, [pc, #20]	; (800003c <_Z4waitv+0x1c>)
 8000026:	9301      	str	r3, [sp, #4]
 8000028:	9b01      	ldr	r3, [sp, #4]
 800002a:	4293      	cmp	r3, r2
 800002c:	dc03      	bgt.n	8000036 <_Z4waitv+0x16>
 800002e:	9b01      	ldr	r3, [sp, #4]
 8000030:	3301      	adds	r3, #1
 8000032:	9301      	str	r3, [sp, #4]
 8000034:	e7f8      	b.n	8000028 <_Z4waitv+0x8>
 8000036:	b002      	add	sp, #8
 8000038:	4770      	bx	lr
 800003a:	bf00      	nop
 800003c:	0001869f 	.word	0x0001869f

08000040 <_ZN3pinC1Eii>:
 8000040:	e880 0006 	stmia.w	r0, {r1, r2}
 8000044:	4770      	bx	lr
	...

08000048 <_ZN3pin3setEb>:
 8000048:	6802      	ldr	r2, [r0, #0]
 800004a:	4b0a      	ldr	r3, [pc, #40]	; (8000074 <_ZN3pin3setEb+0x2c>)
 800004c:	b510      	push	{r4, lr}
 800004e:	f853 4022 	ldr.w	r4, [r3, r2, lsl #2]
 8000052:	6843      	ldr	r3, [r0, #4]
 8000054:	425a      	negs	r2, r3
 8000056:	f002 020f 	and.w	r2, r2, #15
 800005a:	f003 030f 	and.w	r3, r3, #15
 800005e:	bf58      	it	pl
 8000060:	4253      	negpl	r3, r2
 8000062:	2900      	cmp	r1, #0
 8000064:	bf14      	ite	ne
 8000066:	2200      	movne	r2, #0
 8000068:	2210      	moveq	r2, #16
 800006a:	441a      	add	r2, r3
 800006c:	2301      	movs	r3, #1
 800006e:	4093      	lsls	r3, r2
 8000070:	6123      	str	r3, [r4, #16]
 8000072:	bd10      	pop	{r4, pc}
 8000074:	20001800 	.word	0x20001800

08000078 <main>:
 8000078:	b507      	push	{r0, r1, r2, lr}
 800007a:	220d      	movs	r2, #13
 800007c:	2102      	movs	r1, #2
 800007e:	4668      	mov	r0, sp
 8000080:	f7ff ffde 	bl	8000040 <_ZN3pinC1Eii>
 8000084:	4668      	mov	r0, sp
 8000086:	2101      	movs	r1, #1
 8000088:	f7ff ffde 	bl	8000048 <_ZN3pin3setEb>
 800008c:	f7ff ffc8 	bl	8000020 <_Z4waitv>
 8000090:	2100      	movs	r1, #0
 8000092:	4668      	mov	r0, sp
 8000094:	f7ff ffd8 	bl	8000048 <_ZN3pin3setEb>
 8000098:	f7ff ffc2 	bl	8000020 <_Z4waitv>
 800009c:	e7f2      	b.n	8000084 <main+0xc>
	...

080000a0 <__startup>:
 80000a0:	2100      	movs	r1, #0
 80000a2:	b508      	push	{r3, lr}
 80000a4:	4a0b      	ldr	r2, [pc, #44]	; (80000d4 <__startup+0x34>)
 80000a6:	4b0c      	ldr	r3, [pc, #48]	; (80000d8 <__startup+0x38>)
 80000a8:	4293      	cmp	r3, r2
 80000aa:	d10a      	bne.n	80000c2 <__startup+0x22>
 80000ac:	2200      	movs	r2, #0
 80000ae:	490b      	ldr	r1, [pc, #44]	; (80000dc <__startup+0x3c>)
 80000b0:	4b0b      	ldr	r3, [pc, #44]	; (80000e0 <__startup+0x40>)
 80000b2:	480c      	ldr	r0, [pc, #48]	; (80000e4 <__startup+0x44>)
 80000b4:	1a5b      	subs	r3, r3, r1
 80000b6:	089b      	lsrs	r3, r3, #2
 80000b8:	429a      	cmp	r2, r3
 80000ba:	d105      	bne.n	80000c8 <__startup+0x28>
 80000bc:	f7ff ffdc 	bl	8000078 <main>
 80000c0:	e7fe      	b.n	80000c0 <__startup+0x20>
 80000c2:	f843 1b04 	str.w	r1, [r3], #4
 80000c6:	e7ef      	b.n	80000a8 <__startup+0x8>
 80000c8:	f850 4022 	ldr.w	r4, [r0, r2, lsl #2]
 80000cc:	f841 4022 	str.w	r4, [r1, r2, lsl #2]
 80000d0:	3201      	adds	r2, #1
 80000d2:	e7f1      	b.n	80000b8 <__startup+0x18>
 80000d4:	20001800 	.word	0x20001800
 80000d8:	20001800 	.word	0x20001800
 80000dc:	20001800 	.word	0x20001800
 80000e0:	20001810 	.word	0x20001810
 80000e4:	080000e8 	.word	0x080000e8
